; Function Attrs: mustprogress uwtable
define hidden void @_ZN13hilbert_basis10set_is_intEj(ptr noundef nonnull align 8 dereferenceable(127) %this, i32 noundef %var_index) local_unnamed_addr #3 align 2 {
entry:
  %m_ints = getelementptr inbounds i8, ptr %this, i64 112
  %0 = load ptr, ptr %m_ints, align 8
  %cmp.i = icmp eq ptr %0, null
  br i1 %cmp.i, label %if.then.i, label %lor.lhs.false.i

lor.lhs.false.i:                                  ; preds = %entry
  %arrayidx.i = getelementptr inbounds i8, ptr %0, i64 -4
  %1 = load i32, ptr %arrayidx.i, align 4
  %arrayidx4.i = getelementptr inbounds i8, ptr %0, i64 -8
  %2 = load i32, ptr %arrayidx4.i, align 4
  %cmp5.i = icmp eq i32 %1, %2
  br i1 %cmp5.i, label %if.then.i, label %_ZN6vectorIjLb0EjE9push_backEOj.exit

if.then.i:                                        ; preds = %lor.lhs.false.i, %entry
  tail call void @_ZN6vectorIjLb0EjE13expand_vectorEv(ptr noundef nonnull align 8 dereferenceable(8) %m_ints)
  %.pre.i = load ptr, ptr %m_ints, align 8
  %arrayidx8.phi.trans.insert.i = getelementptr inbounds i8, ptr %.pre.i, i64 -4
  %.pre1.i = load i32, ptr %arrayidx8.phi.trans.insert.i, align 4
  br label %_ZN6vectorIjLb0EjE9push_backEOj.exit

_ZN6vectorIjLb0EjE9push_backEOj.exit:             ; preds = %lor.lhs.false.i, %if.then.i
  %3 = phi i32 [ %.pre1.i, %if.then.i ], [ %1, %lor.lhs.false.i ]
  %4 = phi ptr [ %.pre.i, %if.then.i ], [ %0, %lor.lhs.false.i ]
  %add = add i32 %var_index, 1
  %idx.ext.i = zext i32 %3 to i64
  %add.ptr.i = getelementptr inbounds i32, ptr %4, i64 %idx.ext.i
  store i32 %add, ptr %add.ptr.i, align 4
  %5 = load ptr, ptr %m_ints, align 8
  %arrayidx10.i = getelementptr inbounds i8, ptr %5, i64 -4
  %6 = load i32, ptr %arrayidx10.i, align 4
  %inc.i = add i32 %6, 1
  store i32 %inc.i, ptr %arrayidx10.i, align 4
  ret void
}